target datalayout = "e-m:e-p270:32:32-p271:32:32-p272:64:64-i64:64-i128:128-f80:128-n8:16:32:64-S128"
target triple = "x86_64-pc-linux-gnu"

%struct._image_pos = type { float, float, float, float }
%struct._image_box = type { i32, i32, i32, i32, i32, i32, i32, i32, i32, i32, %struct._image_pos, %struct._image_pos, %struct._image_pos, ptr }
%struct.dt_images_box = type { i32, i32, i32, [20 x %struct._image_box], float, float, float, float, %struct.dt_screen_pos }
%struct.dt_screen_pos = type { %struct._image_pos, %struct._image_pos, i32 }

; Function Attrs: inlinehint nounwind uwtable
define internal float @sqrf(float noundef %0) #2 {
  %2 = alloca float, align 4
  store float %0, ptr %2, align 4, !tbaa !45
  %3 = load float, ptr %2, align 4, !tbaa !45
  %4 = load float, ptr %2, align 4, !tbaa !45
  %5 = fmul reassoc nsz arcp contract afn float %3, %4
  ret float %5
}

; Function Attrs: nounwind uwtable
define i32 @dt_printing_get_image_box(ptr noundef %0, i32 noundef %1, i32 noundef %2) #0 {
  %4 = alloca ptr, align 8
  %5 = alloca i32, align 4
  %6 = alloca i32, align 4
  %7 = alloca i32, align 4
  %8 = alloca float, align 4
  %9 = alloca i32, align 4
  %10 = alloca ptr, align 8
  %11 = alloca float, align 4
  %12 = alloca float, align 4
  %13 = alloca float, align 4
  %14 = alloca float, align 4
  %15 = alloca float, align 4
  store ptr %0, ptr %4, align 8, !tbaa !33
  store i32 %1, ptr %5, align 4, !tbaa !35
  store i32 %2, ptr %6, align 4, !tbaa !35
  call void @llvm.lifetime.start.p0(i64 4, ptr %7) #5
  store i32 -1, ptr %7, align 4, !tbaa !35
  call void @llvm.lifetime.start.p0(i64 4, ptr %8) #5
  store float 0x47EFFFFFE0000000, ptr %8, align 4, !tbaa !45
  call void @llvm.lifetime.start.p0(i64 4, ptr %9) #5
  store i32 0, ptr %9, align 4, !tbaa !35
  br label %16

16:                                               ; preds = %109, %3
  %17 = load i32, ptr %9, align 4, !tbaa !35
  %18 = load ptr, ptr %4, align 8, !tbaa !33
  %19 = getelementptr inbounds nuw %struct.dt_images_box, ptr %18, i32 0, i32 2
  %20 = load i32, ptr %19, align 8, !tbaa !36
  %21 = icmp slt i32 %17, %20
  br i1 %21, label %23, label %22

22:                                               ; preds = %16
  call void @llvm.lifetime.end.p0(i64 4, ptr %9) #5
  br label %112

23:                                               ; preds = %16
  call void @llvm.lifetime.start.p0(i64 8, ptr %10) #5
  %24 = load ptr, ptr %4, align 8, !tbaa !33
  %25 = getelementptr inbounds nuw %struct.dt_images_box, ptr %24, i32 0, i32 3
  %26 = load i32, ptr %9, align 4, !tbaa !35
  %27 = sext i32 %26 to i64
  %28 = getelementptr inbounds [20 x %struct._image_box], ptr %25, i64 0, i64 %27
  store ptr %28, ptr %10, align 8, !tbaa !17
  call void @llvm.lifetime.start.p0(i64 4, ptr %11) #5
  %29 = load ptr, ptr %10, align 8, !tbaa !17
  %30 = getelementptr inbounds nuw %struct._image_box, ptr %29, i32 0, i32 11
  %31 = getelementptr inbounds nuw %struct._image_pos, ptr %30, i32 0, i32 0
  %32 = load float, ptr %31, align 8, !tbaa !46
  store float %32, ptr %11, align 4, !tbaa !45
  call void @llvm.lifetime.start.p0(i64 4, ptr %12) #5
  %33 = load ptr, ptr %10, align 8, !tbaa !17
  %34 = getelementptr inbounds nuw %struct._image_box, ptr %33, i32 0, i32 11
  %35 = getelementptr inbounds nuw %struct._image_pos, ptr %34, i32 0, i32 0
  %36 = load float, ptr %35, align 8, !tbaa !46
  %37 = load ptr, ptr %10, align 8, !tbaa !17
  %38 = getelementptr inbounds nuw %struct._image_box, ptr %37, i32 0, i32 11
  %39 = getelementptr inbounds nuw %struct._image_pos, ptr %38, i32 0, i32 2
  %40 = load float, ptr %39, align 8, !tbaa !47
  %41 = fadd reassoc nsz arcp contract afn float %36, %40
  store float %41, ptr %12, align 4, !tbaa !45
  call void @llvm.lifetime.start.p0(i64 4, ptr %13) #5
  %42 = load ptr, ptr %10, align 8, !tbaa !17
  %43 = getelementptr inbounds nuw %struct._image_box, ptr %42, i32 0, i32 11
  %44 = getelementptr inbounds nuw %struct._image_pos, ptr %43, i32 0, i32 1
  %45 = load float, ptr %44, align 4, !tbaa !48
  store float %45, ptr %13, align 4, !tbaa !45
  call void @llvm.lifetime.start.p0(i64 4, ptr %14) #5
  %46 = load ptr, ptr %10, align 8, !tbaa !17
  %47 = getelementptr inbounds nuw %struct._image_box, ptr %46, i32 0, i32 11
  %48 = getelementptr inbounds nuw %struct._image_pos, ptr %47, i32 0, i32 1
  %49 = load float, ptr %48, align 4, !tbaa !48
  %50 = load ptr, ptr %10, align 8, !tbaa !17
  %51 = getelementptr inbounds nuw %struct._image_box, ptr %50, i32 0, i32 11
  %52 = getelementptr inbounds nuw %struct._image_pos, ptr %51, i32 0, i32 3
  %53 = load float, ptr %52, align 4, !tbaa !49
  %54 = fadd reassoc nsz arcp contract afn float %49, %53
  store float %54, ptr %14, align 4, !tbaa !45
  %55 = load i32, ptr %5, align 4, !tbaa !35
  %56 = sitofp i32 %55 to float
  %57 = load float, ptr %11, align 4, !tbaa !45
  %58 = fcmp reassoc nsz arcp contract afn ogt float %56, %57
  br i1 %58, label %59, label %108

59:                                               ; preds = %23
  %60 = load i32, ptr %5, align 4, !tbaa !35
  %61 = sitofp i32 %60 to float
  %62 = load float, ptr %12, align 4, !tbaa !45
  %63 = fcmp reassoc nsz arcp contract afn olt float %61, %62
  br i1 %63, label %64, label %108

64:                                               ; preds = %59
  %65 = load i32, ptr %6, align 4, !tbaa !35
  %66 = sitofp i32 %65 to float
  %67 = load float, ptr %13, align 4, !tbaa !45
  %68 = fcmp reassoc nsz arcp contract afn ogt float %66, %67
  br i1 %68, label %69, label %108

69:                                               ; preds = %64
  %70 = load i32, ptr %6, align 4, !tbaa !35
  %71 = sitofp i32 %70 to float
  %72 = load float, ptr %14, align 4, !tbaa !45
  %73 = fcmp reassoc nsz arcp contract afn olt float %71, %72
  br i1 %73, label %74, label %108

74:                                               ; preds = %69
  call void @llvm.lifetime.start.p0(i64 4, ptr %15) #5
  %75 = load float, ptr %11, align 4, !tbaa !45
  %76 = load i32, ptr %5, align 4, !tbaa !35
  %77 = sitofp i32 %76 to float
  %78 = fsub reassoc nsz arcp contract afn float %75, %77
  %79 = call reassoc nsz arcp contract afn float @sqrf(float noundef %78)
  store float %79, ptr %15, align 4, !tbaa !45
  %80 = load float, ptr %15, align 4, !tbaa !45
  %81 = load float, ptr %12, align 4, !tbaa !45
  %82 = load i32, ptr %5, align 4, !tbaa !35
  %83 = sitofp i32 %82 to float
  %84 = fsub reassoc nsz arcp contract afn float %81, %83
  %85 = call reassoc nsz arcp contract afn float @sqrf(float noundef %84)
  %86 = call reassoc nsz arcp contract afn float @llvm.minnum.f32(float %80, float %85)
  store float %86, ptr %15, align 4, !tbaa !45
  %87 = load float, ptr %15, align 4, !tbaa !45
  %88 = load float, ptr %13, align 4, !tbaa !45
  %89 = load i32, ptr %6, align 4, !tbaa !35
  %90 = sitofp i32 %89 to float
  %91 = fsub reassoc nsz arcp contract afn float %88, %90
  %92 = call reassoc nsz arcp contract afn float @sqrf(float noundef %91)
  %93 = call reassoc nsz arcp contract afn float @llvm.minnum.f32(float %87, float %92)
  store float %93, ptr %15, align 4, !tbaa !45
  %94 = load float, ptr %15, align 4, !tbaa !45
  %95 = load float, ptr %14, align 4, !tbaa !45
  %96 = load i32, ptr %6, align 4, !tbaa !35
  %97 = sitofp i32 %96 to float
  %98 = fsub reassoc nsz arcp contract afn float %95, %97
  %99 = call reassoc nsz arcp contract afn float @sqrf(float noundef %98)
  %100 = call reassoc nsz arcp contract afn float @llvm.minnum.f32(float %94, float %99)
  store float %100, ptr %15, align 4, !tbaa !45
  %101 = load float, ptr %15, align 4, !tbaa !45
  %102 = load float, ptr %8, align 4, !tbaa !45
  %103 = fcmp reassoc nsz arcp contract afn olt float %101, %102
  br i1 %103, label %104, label %107

104:                                              ; preds = %74
  %105 = load i32, ptr %9, align 4, !tbaa !35
  store i32 %105, ptr %7, align 4, !tbaa !35
  %106 = load float, ptr %15, align 4, !tbaa !45
  store float %106, ptr %8, align 4, !tbaa !45
  br label %107

107:                                              ; preds = %104, %74
  call void @llvm.lifetime.end.p0(i64 4, ptr %15) #5
  br label %108

108:                                              ; preds = %107, %69, %64, %59, %23
  call void @llvm.lifetime.end.p0(i64 4, ptr %14) #5
  call void @llvm.lifetime.end.p0(i64 4, ptr %13) #5
  call void @llvm.lifetime.end.p0(i64 4, ptr %12) #5
  call void @llvm.lifetime.end.p0(i64 4, ptr %11) #5
  call void @llvm.lifetime.end.p0(i64 8, ptr %10) #5
  br label %109

109:                                              ; preds = %108
  %110 = load i32, ptr %9, align 4, !tbaa !35
  %111 = add nsw i32 %110, 1
  store i32 %111, ptr %9, align 4, !tbaa !35
  br label %16

112:                                              ; preds = %22
  %113 = load i32, ptr %7, align 4, !tbaa !35
  call void @llvm.lifetime.end.p0(i64 4, ptr %8) #5
  call void @llvm.lifetime.end.p0(i64 4, ptr %7) #5
  ret i32 %113
}