; Function Attrs: nofree norecurse nosync nounwind memory(argmem: read) uwtable
define i32 @dt_printing_get_image_box(ptr noundef readonly captures(none) %0, i32 noundef %1, i32 noundef %2) local_unnamed_addr #3 {
  %4 = getelementptr inbounds nuw i8, ptr %0, i64 8
  %5 = load i32, ptr %4, align 8, !tbaa !15
  %6 = icmp sgt i32 %5, 0
  br i1 %6, label %.lr.ph, label %._crit_edge

.lr.ph:                                           ; preds = %3
  %7 = getelementptr i8, ptr %0, i64 72
  %8 = sitofp i32 %1 to float
  %9 = sitofp i32 %2 to float
  %wide.trip.count = zext nneg i32 %5 to i64
  br label %10

._crit_edge:                                      ; preds = %40, %3
  %.0.lcssa = phi i32 [ -1, %3 ], [ %.1, %40 ]
  ret i32 %.0.lcssa

10:                                               ; preds = %.lr.ph, %40
  %indvars.iv = phi i64 [ 0, %.lr.ph ], [ %indvars.iv.next, %40 ]
  %.048 = phi i32 [ -1, %.lr.ph ], [ %.1, %40 ]
  %.03447 = phi float [ 0x47EFFFFFE0000000, %.lr.ph ], [ %.135, %40 ]
  %.idx = mul nuw nsw i64 %indvars.iv, 96
  %11 = getelementptr i8, ptr %7, i64 %.idx
  %12 = load float, ptr %11, align 8, !tbaa !20
  %13 = getelementptr inbounds nuw i8, ptr %11, i64 8
  %14 = load float, ptr %13, align 8, !tbaa !21
  %15 = fadd reassoc nsz arcp contract afn float %14, %12
  %16 = getelementptr inbounds nuw i8, ptr %11, i64 4
  %17 = load float, ptr %16, align 4, !tbaa !22
  %18 = getelementptr inbounds nuw i8, ptr %11, i64 12
  %19 = load float, ptr %18, align 4, !tbaa !23
  %20 = fadd reassoc nsz arcp contract afn float %19, %17
  %21 = fcmp reassoc nsz arcp contract afn olt float %12, %8
  %22 = fcmp reassoc nsz arcp contract afn ogt float %15, %8
  %or.cond = select i1 %21, i1 %22, i1 false
  br i1 %or.cond, label %23, label %40

23:                                               ; preds = %10
  %24 = fcmp reassoc nsz arcp contract afn olt float %17, %9
  %25 = fcmp reassoc nsz arcp contract afn ogt float %20, %9
  %or.cond45 = select i1 %24, i1 %25, i1 false
  br i1 %or.cond45, label %26, label %40

26:                                               ; preds = %23
  %27 = fsub reassoc nsz arcp contract afn float %12, %8
  %28 = fmul reassoc nsz arcp contract afn float %27, %27
  %29 = fsub reassoc nsz arcp contract afn float %15, %8
  %30 = fmul reassoc nsz arcp contract afn float %29, %29
  %31 = tail call reassoc nsz arcp contract afn float @llvm.minnum.f32(float %28, float %30)
  %32 = fsub reassoc nsz arcp contract afn float %17, %9
  %33 = fmul reassoc nsz arcp contract afn float %32, %32
  %34 = tail call reassoc nsz arcp contract afn float @llvm.minnum.f32(float %31, float %33)
  %35 = fsub reassoc nsz arcp contract afn float %20, %9
  %36 = fmul reassoc nsz arcp contract afn float %35, %35
  %37 = tail call reassoc nsz arcp contract afn float @llvm.minnum.f32(float %34, float %36)
  %38 = fcmp reassoc nsz arcp contract afn olt float %37, %.03447
  %.236 = select nsz i1 %38, float %37, float %.03447
  %39 = trunc nuw nsw i64 %indvars.iv to i32
  %.2 = select i1 %38, i32 %39, i32 %.048
  br label %40

40:                                               ; preds = %26, %23, %10
  %.135 = phi nsz float [ %.236, %26 ], [ %.03447, %23 ], [ %.03447, %10 ]
  %.1 = phi i32 [ %.2, %26 ], [ %.048, %23 ], [ %.048, %10 ]
  %indvars.iv.next = add nuw nsw i64 %indvars.iv, 1
  %exitcond.not = icmp eq i64 %indvars.iv.next, %wide.trip.count
  br i1 %exitcond.not, label %._crit_edge, label %10
}